; Function Attrs: mustprogress nounwind uwtable
define dso_local noundef zeroext i1 @_ZN4llvm9TypeInfer22EnforceVectorEltTypeIsERNS_15TypeSetByHwModeERKNS_17ValueTypeByHwModeE(ptr noundef nonnull align 8 dereferenceable(72) %0, ptr noundef nonnull align 8 dereferenceable(56) %1, ptr noundef nonnull align 8 dereferenceable(52) %2) local_unnamed_addr #0 align 2 {
  %4 = alloca %"struct.llvm::TypeSetByHwMode", align 8
  %5 = alloca %"struct.llvm::TypeInfer::ValidateOnExit", align 8
  %6 = alloca %"struct.llvm::TypeInfer::ValidateOnExit", align 8
  call void @_ZN4llvm15TypeSetByHwModeC1ENS_8ArrayRefINS_17ValueTypeByHwModeEEE(ptr noundef nonnull align 8 dereferenceable(56) %4, ptr nonnull %2, i64 1) #29
  store ptr %0, ptr %5, align 8
  %7 = getelementptr inbounds nuw i8, ptr %5, i64 8
  store ptr %1, ptr %7, align 8
  store ptr %0, ptr %6, align 8
  %8 = getelementptr inbounds nuw i8, ptr %6, i64 8
  store ptr %4, ptr %8, align 8
  %9 = call noundef zeroext i1 @_ZN4llvm9TypeInfer22EnforceVectorEltTypeIsERNS_15TypeSetByHwModeES2_(ptr noundef nonnull align 8 dereferenceable(72) %0, ptr noundef nonnull align 8 dereferenceable(56) %1, ptr noundef nonnull align 8 dereferenceable(56) %4)
  call void @_ZN4llvm9TypeInfer14ValidateOnExitD1Ev(ptr noundef nonnull align 8 dereferenceable(16) %6) #29
  call void @_ZN4llvm9TypeInfer14ValidateOnExitD1Ev(ptr noundef nonnull align 8 dereferenceable(16) %5) #29
  %10 = getelementptr inbounds i8, ptr %4, i64 16
  %11 = load ptr, ptr %10, align 8
  call void @_ZNSt8_Rb_treeIjSt4pairIKjN4llvm19MachineValueTypeSetEESt10_Select1stIS4_ESt4lessIjESaIS4_EE8_M_eraseEPSt13_Rb_tree_nodeIS4_E(ptr noundef nonnull align 8 dereferenceable(48) %4, ptr noundef %11)
  ret i1 %9
}